(dp0
I1
(dp1
S'Lam-Shapiro'
p2
F3.5643574999999998e-08
sS'parallel_prefix'
p3
F3.5762774999999998e-08
sS'state_table'
p4
F3.534555e-08
ssI2
(dp5
S'Lam-Shapiro'
p6
F7.2538875000000008e-08
sS'parallel_prefix'
p7
F8.6754562499999999e-08
sS'state_table'
p8
F7.4312062499999999e-08
ssI3
(dp9
S'Lam-Shapiro'
p10
F1.6535812499999999e-07
sS'parallel_prefix'
p11
F1.2225285937500001e-07
sS'state_table'
p12
F2.7086578124999996e-07
ssI4
(dp13
S'Lam-Shapiro'
p14
F1.2913718749999999e-07
sS'parallel_prefix'
p15
F1.2994464843750002e-07
sS'state_table'
p16
F1.49876796875e-07
ssI5
(dp17
S'Lam-Shapiro'
p18
F1.373984375e-07
sS'parallel_prefix'
p19
F1.191939453125e-07
sS'state_table'
p20
F1.426474609375e-07
ssI6
(dp21
S'Lam-Shapiro'
p22
F1.173931640625e-07
sS'parallel_prefix'
p23
F1.186817626953125e-07
sS'state_table'
p24
F1.174000244140625e-07
ssI7
(dp25
S'Lam-Shapiro'
p26
F1.2427838134765623e-07
sS'parallel_prefix'
p27
F1.2503015136718748e-07
sS'state_table'
p28
F1.2433374023437501e-07
ssI8
(dp29
S'Lam-Shapiro'
p30
F1.3042469787597656e-07
sS'parallel_prefix'
p31
F1.3121974182128907e-07
sS'state_table'
p32
F1.3073709106445312e-07
ssI9
(dp33
S'Lam-Shapiro'
p34
F1.3681129455566407e-07
sS'parallel_prefix'
p35
F1.3741146087646487e-07
sS'state_table'
p36
F1.375232696533203e-07
ssI10
(dp37
S'Lam-Shapiro'
p38
F1.4281978607177733e-07
sS'parallel_prefix'
p39
F1.4361238479614259e-07
sS'state_table'
p40
F1.44612979888916e-07
ssI11
(dp41
S'Lam-Shapiro'
p42
F1.4844520092010496e-07
sS'parallel_prefix'
p43
F1.4946882724761963e-07
sS'state_table'
p44
F1.5160741806030273e-07
ssI12
(dp45
S'Lam-Shapiro'
p46
F1.5457749366760255e-07
sS'parallel_prefix'
p47
F1.5553653240203857e-07
sS'state_table'
p48
F1.5859597921371459e-07
ss.