ccollections
defaultdict
p0
(c__builtin__
dict
p1
tp2
Rp3
I1
(dp4
S'Lam-Shapiro'
p5
F1.1691660625716513e-08
sS'parallel_prefix'
p6
F3.408689519115113e-08
sS'state_table'
p7
F1.3419245375981203e-08
ssI2
(dp8
S'Lam-Shapiro'
p9
F1.757862047179538e-08
sS'parallel_prefix'
p10
F3.4089544803877144e-08
sS'state_table'
p11
F2.0176763655700145e-08
ssI3
(dp12
S'Lam-Shapiro'
p13
F2.3604431200588323e-08
sS'parallel_prefix'
p14
F3.40971350828638e-08
sS'state_table'
p15
F2.7481084702294826e-08
ssI4
(dp16
S'Lam-Shapiro'
p17
F2.9569417252004808e-08
sS'parallel_prefix'
p18
F3.4103076920892614e-08
sS'state_table'
p19
F3.471766134478043e-08
ssI5
(dp20
S'Lam-Shapiro'
p21
F3.539329396346272e-08
sS'parallel_prefix'
p22
F3.410363571443764e-08
sS'state_table'
p23
F4.13535768358752e-08
ssI6
(dp24
S'Lam-Shapiro'
p25
F4.1551869381941795e-08
sS'parallel_prefix'
p26
F3.409029917516294e-08
sS'state_table'
p27
F4.828246312601606e-08
ssI7
(dp28
S'Lam-Shapiro'
p29
F5.0968723395359106e-08
sS'parallel_prefix'
p30
F3.4104399398949187e-08
sS'state_table'
p31
F5.5152643497638705e-08
ssI8
(dp32
S'Lam-Shapiro'
p33
F5.8096321326725336e-08
sS'parallel_prefix'
p34
F3.4090708957095955e-08
sS'state_table'
p35
F6.183916705746164e-08
ssI9
(dp36
S'Lam-Shapiro'
p37
F6.432924422637058e-08
sS'parallel_prefix'
p38
F3.40828951606913e-08
sS'state_table'
p39
F6.894296969703537e-08
ssI10
(dp40
S'Lam-Shapiro'
p41
F7.073078307822849e-08
sS'parallel_prefix'
p42
F3.408927937694326e-08
sS'state_table'
p43
F7.605119611884058e-08
ssI11
(dp44
S'Lam-Shapiro'
p45
F7.646316665991357e-08
sS'parallel_prefix'
p46
F3.40919429595079e-08
sS'state_table'
p47
F8.319648917913272e-08
ssI12
(dp48
S'Lam-Shapiro'
p49
F8.219513114643987e-08
sS'parallel_prefix'
p50
F3.407418263800171e-08
sS'state_table'
p51
F9.041489106156625e-08
ssI13
(dp52
S'Lam-Shapiro'
p53
F8.75693746318898e-08
sS'parallel_prefix'
p54
F3.4088804402429984e-08
sS'state_table'
p55
F9.66581050756658e-08
ssI14
(dp56
S'Lam-Shapiro'
p57
F9.300876413146442e-08
sS'parallel_prefix'
p58
F3.407376354284294e-08
sS'state_table'
p59
F1.040390227474454e-07
ssI15
(dp60
S'Lam-Shapiro'
p61
F9.907176722729195e-08
sS'parallel_prefix'
p62
F3.4085172244387295e-08
sS'state_table'
p63
F1.1119148699156544e-07
ssI16
(dp64
S'Lam-Shapiro'
p65
F1.0581836109320557e-07
sS'parallel_prefix'
p66
F3.407373560316569e-08
sS'state_table'
p67
F1.1795847682187262e-07
ssI17
(dp68
S'Lam-Shapiro'
p69
F1.1384887626108195e-07
sS'parallel_prefix'
p70
F3.408369144149297e-08
sS'state_table'
p71
F1.2502484029392938e-07
ssI18
(dp72
S'Lam-Shapiro'
p73
F1.2028971692560693e-07
sS'parallel_prefix'
p74
F3.4093367883047724e-08
sS'state_table'
p75
F1.3158330699968305e-07
ssI19
(dp76
S'Lam-Shapiro'
p77
F1.2534623971457881e-07
sS'parallel_prefix'
p78
F3.4084096566813114e-08
sS'state_table'
p79
F1.3929908170332156e-07
ssI20
(dp80
S'Lam-Shapiro'
p81
F1.3052490545926842e-07
sS'parallel_prefix'
p82
F3.40748252505785e-08
sS'state_table'
p83
F1.4578155248695124e-07
ssI21
(dp84
S'Lam-Shapiro'
p85
F1.3662856078549687e-07
sS'parallel_prefix'
p86
F3.4087509864050666e-08
sS'state_table'
p87
F1.5262020758940847e-07
ssI22
(dp88
S'Lam-Shapiro'
p89
F1.4428221627337963e-07
sS'parallel_prefix'
p90
F3.408346326746208e-08
sS'state_table'
p91
F1.5971055261777274e-07
ssI23
(dp92
S'Lam-Shapiro'
p93
F1.510843635308949e-07
sS'parallel_prefix'
p94
F3.4068883412549685e-08
sS'state_table'
p95
F1.6714739621018404e-07
ssI24
(dp96
S'Lam-Shapiro'
p97
F1.5715435154603532e-07
sS'parallel_prefix'
p98
F3.4062699430651355e-08
sS'state_table'
p99
F1.7371992588682096e-07
ssI25
(dp100
S'Lam-Shapiro'
p101
F1.6308864586199107e-07
sS'parallel_prefix'
p102
F3.4074191951227465e-08
sS'state_table'
p103
F1.8074736007524065e-07
ssI26
(dp104
S'Lam-Shapiro'
p105
F1.687407494377069e-07
sS'parallel_prefix'
p106
F3.407191486753147e-08
sS'state_table'
p107
F1.8800632105581756e-07
ssI27
(dp108
S'Lam-Shapiro'
p109
F1.7435965136362223e-07
sS'parallel_prefix'
p110
F3.4088185072917576e-08
sS'state_table'
p111
F1.94512354300596e-07
ssI28
(dp112
S'Lam-Shapiro'
p113
F1.7993282535110268e-07
sS'parallel_prefix'
p114
F3.408691381760263e-08
sS'state_table'
p115
F2.0165941687378073e-07
ssI29
(dp116
S'Lam-Shapiro'
p117
F1.8532113180743585e-07
sS'parallel_prefix'
p118
F3.408753780372792e-08
sS'state_table'
p119
F2.0845495174101317e-07
ssI30
(dp120
S'Lam-Shapiro'
p121
F1.9101342195226505e-07
sS'parallel_prefix'
p122
F3.407677171476035e-08
sS'state_table'
p123
F2.1529369997572792e-07
ssI31
(dp124
S'Lam-Shapiro'
p125
F1.971053891801766e-07
sS'parallel_prefix'
p126
F3.4078424812331065e-08
sS'state_table'
p127
F2.3038070659636553e-07
ss.